; ModuleID = '4/1892.c'
source_filename = "4/1892.c"
target datalayout = "e-m:e-p270:32:32-p271:32:32-p272:64:64-i64:64-f80:128-n8:16:32:64-S128"
target triple = "x86_64-pc-linux-gnu"

@.str = private unnamed_addr constant [6 x i8] c"%d %d\00", align 1
@.str.1 = private unnamed_addr constant [3 x i8] c"%d\00", align 1
@.str.2 = private unnamed_addr constant [4 x i8] c"%d\0A\00", align 1

; Function Attrs: noinline nounwind uwtable
define dso_local void @main() #0 {
  %1 = alloca i32, align 4
  %2 = alloca i32, align 4
  %3 = alloca i32, align 4
  %4 = alloca i32, align 4
  %5 = alloca i32, align 4
  %6 = alloca [200 x i32]*, align 8
  %7 = call noalias i8* @malloc(i64 160000) #3
  %8 = bitcast i8* %7 to [200 x i32]*
  store [200 x i32]* %8, [200 x i32]** %6, align 8
  store i32 0, i32* %3, align 4
  br label %9

9:                                                ; preds = %29, %0
  %10 = load i32, i32* %3, align 4
  %11 = icmp slt i32 %10, 200
  br i1 %11, label %12, label %32

12:                                               ; preds = %9
  store i32 0, i32* %4, align 4
  br label %13

13:                                               ; preds = %25, %12
  %14 = load i32, i32* %4, align 4
  %15 = icmp slt i32 %14, 200
  br i1 %15, label %16, label %28

16:                                               ; preds = %13
  %17 = load [200 x i32]*, [200 x i32]** %6, align 8
  %18 = load i32, i32* %3, align 4
  %19 = sext i32 %18 to i64
  %20 = getelementptr inbounds [200 x i32], [200 x i32]* %17, i64 %19
  %21 = getelementptr inbounds [200 x i32], [200 x i32]* %20, i64 0, i64 0
  %22 = load i32, i32* %4, align 4
  %23 = sext i32 %22 to i64
  %24 = getelementptr inbounds i32, i32* %21, i64 %23
  store i32 -32767, i32* %24, align 4
  br label %25

25:                                               ; preds = %16
  %26 = load i32, i32* %4, align 4
  %27 = add nsw i32 %26, 1
  store i32 %27, i32* %4, align 4
  br label %13

28:                                               ; preds = %13
  br label %29

29:                                               ; preds = %28
  %30 = load i32, i32* %3, align 4
  %31 = add nsw i32 %30, 1
  store i32 %31, i32* %3, align 4
  br label %9

32:                                               ; preds = %9
  %33 = call i32 (i8*, ...) @__isoc99_scanf(i8* getelementptr inbounds ([6 x i8], [6 x i8]* @.str, i64 0, i64 0), i32* %1, i32* %2)
  store i32 0, i32* %3, align 4
  br label %34

34:                                               ; preds = %57, %32
  %35 = load i32, i32* %3, align 4
  %36 = load i32, i32* %1, align 4
  %37 = icmp slt i32 %35, %36
  br i1 %37, label %38, label %60

38:                                               ; preds = %34
  store i32 0, i32* %4, align 4
  br label %39

39:                                               ; preds = %53, %38
  %40 = load i32, i32* %4, align 4
  %41 = load i32, i32* %2, align 4
  %42 = icmp slt i32 %40, %41
  br i1 %42, label %43, label %56

43:                                               ; preds = %39
  %44 = load [200 x i32]*, [200 x i32]** %6, align 8
  %45 = load i32, i32* %3, align 4
  %46 = sext i32 %45 to i64
  %47 = getelementptr inbounds [200 x i32], [200 x i32]* %44, i64 %46
  %48 = getelementptr inbounds [200 x i32], [200 x i32]* %47, i64 0, i64 0
  %49 = load i32, i32* %4, align 4
  %50 = sext i32 %49 to i64
  %51 = getelementptr inbounds i32, i32* %48, i64 %50
  %52 = call i32 (i8*, ...) @__isoc99_scanf(i8* getelementptr inbounds ([3 x i8], [3 x i8]* @.str.1, i64 0, i64 0), i32* %51)
  br label %53

53:                                               ; preds = %43
  %54 = load i32, i32* %4, align 4
  %55 = add nsw i32 %54, 1
  store i32 %55, i32* %4, align 4
  br label %39

56:                                               ; preds = %39
  br label %57

57:                                               ; preds = %56
  %58 = load i32, i32* %3, align 4
  %59 = add nsw i32 %58, 1
  store i32 %59, i32* %3, align 4
  br label %34

60:                                               ; preds = %34
  store i32 0, i32* %5, align 4
  br label %61

61:                                               ; preds = %109, %60
  %62 = load i32, i32* %5, align 4
  %63 = load i32, i32* %1, align 4
  %64 = load i32, i32* %2, align 4
  %65 = add nsw i32 %63, %64
  %66 = sub nsw i32 %65, 2
  %67 = icmp sle i32 %62, %66
  br i1 %67, label %68, label %112

68:                                               ; preds = %61
  store i32 0, i32* %3, align 4
  br label %69

69:                                               ; preds = %105, %68
  %70 = load i32, i32* %3, align 4
  %71 = load i32, i32* %5, align 4
  %72 = icmp sle i32 %70, %71
  br i1 %72, label %73, label %77

73:                                               ; preds = %69
  %74 = load i32, i32* %3, align 4
  %75 = load i32, i32* %1, align 4
  %76 = icmp slt i32 %74, %75
  br label %77

77:                                               ; preds = %73, %69
  %78 = phi i1 [ false, %69 ], [ %76, %73 ]
  br i1 %78, label %79, label %108

79:                                               ; preds = %77
  %80 = load i32, i32* %5, align 4
  %81 = load i32, i32* %3, align 4
  %82 = sub nsw i32 %80, %81
  store i32 %82, i32* %4, align 4
  %83 = load [200 x i32]*, [200 x i32]** %6, align 8
  %84 = load i32, i32* %3, align 4
  %85 = sext i32 %84 to i64
  %86 = getelementptr inbounds [200 x i32], [200 x i32]* %83, i64 %85
  %87 = getelementptr inbounds [200 x i32], [200 x i32]* %86, i64 0, i64 0
  %88 = load i32, i32* %4, align 4
  %89 = sext i32 %88 to i64
  %90 = getelementptr inbounds i32, i32* %87, i64 %89
  %91 = load i32, i32* %90, align 4
  %92 = icmp sgt i32 %91, -32767
  br i1 %92, label %93, label %104

93:                                               ; preds = %79
  %94 = load [200 x i32]*, [200 x i32]** %6, align 8
  %95 = load i32, i32* %3, align 4
  %96 = sext i32 %95 to i64
  %97 = getelementptr inbounds [200 x i32], [200 x i32]* %94, i64 %96
  %98 = getelementptr inbounds [200 x i32], [200 x i32]* %97, i64 0, i64 0
  %99 = load i32, i32* %4, align 4
  %100 = sext i32 %99 to i64
  %101 = getelementptr inbounds i32, i32* %98, i64 %100
  %102 = load i32, i32* %101, align 4
  %103 = call i32 (i8*, ...) @printf(i8* getelementptr inbounds ([4 x i8], [4 x i8]* @.str.2, i64 0, i64 0), i32 %102)
  br label %104

104:                                              ; preds = %93, %79
  br label %105

105:                                              ; preds = %104
  %106 = load i32, i32* %3, align 4
  %107 = add nsw i32 %106, 1
  store i32 %107, i32* %3, align 4
  br label %69

108:                                              ; preds = %77
  br label %109

109:                                              ; preds = %108
  %110 = load i32, i32* %5, align 4
  %111 = add nsw i32 %110, 1
  store i32 %111, i32* %5, align 4
  br label %61

112:                                              ; preds = %61
  ret void
}

; Function Attrs: nounwind
declare dso_local noalias i8* @malloc(i64) #1

declare dso_local i32 @__isoc99_scanf(i8*, ...) #2

declare dso_local i32 @printf(i8*, ...) #2


!llvm.module.flags = !{!0}
!llvm.ident = !{!1}

!0 = !{i32 1, !"wchar_size", i32 4}
!1 = !{!"clang version 10.0.0-4ubuntu1 "}
